target datalayout = "e-m:e-p270:32:32-p271:32:32-p272:64:64-i64:64-i128:128-f80:128-n8:16:32:64-S128"
target triple = "x86_64-pc-linux-gnu"

%struct.connectdata = type { %struct.Curl_llist_node, ptr, ptr, i64, ptr, i64, ptr, ptr, %struct.hostname, ptr, ptr, %struct.hostname, %struct.proxy_info, %struct.proxy_info, %struct.ip_quadruple, %struct.ip_quadruple, ptr, ptr, ptr, ptr, ptr, %struct.curltime, %struct.curltime, %struct.curltime, [2 x i32], [2 x ptr], [2 x ptr], [2 x ptr], %struct.anon, %struct.easy_pollset, %struct.ssl_primary_config, %struct.ssl_primary_config, %struct.ConnectBits, ptr, ptr, %struct.curltime, i32, i32, %struct.Curl_llist, i32, i32, %struct.ntlmdata, %struct.ntlmdata, %union.anon, ptr, ptr, i16, i32, i32, i32, i32, i16, i16, i8, i8, i8, i8, i8, i8, i8 }
%struct.Curl_llist_node = type { ptr, ptr, ptr, ptr }
%struct.hostname = type { ptr, ptr, ptr, ptr }
%struct.proxy_info = type { %struct.hostname, i32, i8, ptr, ptr }
%struct.ip_quadruple = type { [46 x i8], [46 x i8], i32, i32 }
%struct.anon = type { [2 x %struct.curltime], i32 }
%struct.easy_pollset = type { [5 x i32], i32, [5 x i8] }
%struct.ssl_primary_config = type { ptr, ptr, ptr, ptr, ptr, ptr, ptr, ptr, ptr, ptr, ptr, ptr, ptr, ptr, i8, i32, i8, i8 }
%struct.ConnectBits = type { i64 }
%struct.curltime = type { i64, i32 }
%struct.Curl_llist = type { ptr, ptr, ptr, i64 }
%struct.ntlmdata = type { i32, [8 x i8], i32, ptr }
%union.anon = type { %struct.ftp_conn }
%struct.ftp_conn = type { %struct.pingpong, ptr, ptr, ptr, ptr, ptr, ptr, ptr, i8, i64, ptr, i64, i32, i32, i32, i32, i32, i16, i8, i8, i8, i8, i8 }
%struct.pingpong = type { i64, i8, ptr, i64, i64, %struct.curltime, i64, %struct.dynbuf, %struct.dynbuf, i64, i64, ptr, ptr }
%struct.dynbuf = type { ptr, i64, i64, i64 }
%struct.Curl_easy = type { i32, i64, i64, ptr, %struct.Curl_llist_node, %struct.Curl_llist_node, i32, i32, %struct.Curl_message, %struct.easy_pollset, %struct.Names, ptr, ptr, ptr, ptr, %struct.SingleRequest, %struct.UserDefined, ptr, ptr, ptr, %struct.Progress, %struct.UrlState, ptr, %struct.PureInfo, %struct.curl_tlssessioninfo }
%struct.Curl_message = type { %struct.Curl_llist_node, %struct.CURLMsg }
%struct.CURLMsg = type { i32, ptr, %union.anon.2 }
%union.anon.2 = type { ptr }
%struct.Names = type { ptr, i32 }
%struct.SingleRequest = type <{ i64, i64, i64, i64, %struct.curltime, i32, i32, i32, i32, i64, i32, i32, i8, i8, [2 x i8], i32, ptr, ptr, %struct.bufq, i64, i64, ptr, ptr, %union.anon.3, ptr, i8, i32, [3 x i8] }>
%struct.bufq = type { ptr, ptr, ptr, ptr, i64, i64, i64, i32 }
%union.anon.3 = type { ptr }
%struct.UserDefined = type <{ ptr, ptr, ptr, ptr, ptr, ptr, i64, i64, i64, ptr, ptr, i64, ptr, ptr, ptr, ptr, ptr, ptr, ptr, ptr, ptr, ptr, ptr, ptr, ptr, ptr, ptr, ptr, ptr, ptr, ptr, ptr, ptr, ptr, ptr, i64, i64, i64, i64, i64, i64, i64, i64, i64, ptr, ptr, %struct.curl_mimepart, ptr, ptr, ptr, i64, %struct.ssl_config_data, %struct.ssl_config_data, ptr, i16, i8, i8, %struct.ssl_general_config, i32, i32, i32, [4 x i8], ptr, ptr, i64, i32, i8, i8, i8, i8, ptr, ptr, ptr, i32, [4 x i8], [74 x ptr], [8 x ptr], i32, i32, i32, [4 x i8], ptr, i32, [4 x i8], ptr, ptr, ptr, ptr, ptr, i32, i32, i32, i32, i32, i32, i32, i32, i64, ptr, ptr, i64, ptr, i64, ptr, ptr, ptr, ptr, i32, i16, i16, i16, i8, i8, i8, i8, i8, i8, i8, i8, i64, [6 x i8] }>
%struct.curl_mimepart = type { ptr, ptr, i32, i32, ptr, ptr, ptr, ptr, ptr, ptr, ptr, ptr, ptr, ptr, ptr, i64, %struct.mime_state, ptr, %struct.mime_encoder_state, i64 }
%struct.mime_state = type { i32, ptr, i64 }
%struct.mime_encoder_state = type { i64, i64, i64, [256 x i8] }
%struct.ssl_config_data = type { %struct.ssl_primary_config, i64, ptr, ptr, ptr, ptr, ptr, ptr, ptr, i16 }
%struct.ssl_general_config = type { i32 }
%struct.Progress = type { i64, %struct.pgrs_dir, %struct.pgrs_dir, i64, i64, i32, i32, i64, i64, i64, i64, i64, i64, i64, i64, i64, %struct.curltime, %struct.curltime, %struct.curltime, %struct.curltime, %struct.curltime, [6 x i64], [6 x %struct.curltime], i32, i8 }
%struct.pgrs_dir = type { i64, i64, i64, %struct.pgrs_measure }
%struct.pgrs_measure = type { %struct.curltime, i64 }
%struct.UrlState = type { %struct.curltime, i64, i64, %struct.dynbuf, ptr, i64, ptr, i32, i32, i32, ptr, i32, i64, i32, ptr, %struct.digestdata, %struct.digestdata, %struct.auth, %struct.auth, %struct.Curl_async, ptr, i8, %struct.curltime, %struct.Curl_tree, %struct.Curl_llist, [15 x %struct.time_node], ptr, ptr, i64, i64, i64, i64, [32 x i8], i64, ptr, ptr, ptr, %struct.urlpieces, ptr, ptr, ptr, ptr, ptr, i64, %struct.dynbuf, %struct.Curl_llist, [2 x %struct.curl_header], ptr, i32, ptr, ptr, %struct.store_netrc, %struct.dynamically_allocated_data, i8, i8, i8, i8, i32 }
%struct.digestdata = type { ptr, ptr, ptr, ptr, ptr, ptr, i32, i8, i8 }
%struct.auth = type { i64, i64, i64, i8 }
%struct.Curl_async = type { ptr, ptr, ptr, ptr, i32, i32, i8 }
%struct.Curl_tree = type { ptr, ptr, ptr, ptr, %struct.curltime, ptr }
%struct.time_node = type { %struct.Curl_llist_node, %struct.curltime, i32 }
%struct.urlpieces = type { ptr, ptr, ptr, ptr, ptr, ptr, ptr, ptr }
%struct.curl_header = type { ptr, ptr, i64, i64, i32, ptr }
%struct.store_netrc = type { %struct.dynbuf, ptr, i8 }
%struct.dynamically_allocated_data = type { ptr, ptr, ptr, ptr, ptr, ptr, ptr, ptr, ptr, ptr, ptr, ptr, ptr, ptr }
%struct.PureInfo = type { i32, i32, i32, i64, i64, i64, i64, i64, i64, i64, ptr, ptr, i64, i32, %struct.ip_quadruple, i32, ptr, i32, %struct.curl_certinfo, i32, i8 }
%struct.curl_certinfo = type { i32, ptr }
%struct.curl_tlssessioninfo = type { i32, ptr }
%struct.tftp_state_data = type { i32, i32, i32, i32, ptr, i32, i32, i32, i32, i64, %struct.Curl_sockaddr_storage, %struct.Curl_sockaddr_storage, i32, i32, i32, i32, i32, i16, %struct.tftp_packet, %struct.tftp_packet }
%struct.Curl_sockaddr_storage = type { %union.anon.0 }
%union.anon.0 = type { %struct.sockaddr_storage }
%struct.sockaddr_storage = type { i16, [118 x i8], i64 }
%struct.tftp_packet = type { ptr }
%union.__CONST_SOCKADDR_ARG = type { ptr }
%struct.Curl_sockaddr_ex = type { i32, i32, i32, i32, %union.anon.4 }
%union.anon.4 = type { %struct.Curl_sockaddr_storage }
%struct.sockaddr = type { i16, [14 x i8] }

@Curl_ccalloc = external global ptr, align 8
@.str.1 = private unnamed_addr constant [18 x i8] c"bind() failed; %s\00", align 1

; Function Attrs: nounwind uwtable
define internal i32 @tftp_connect(ptr noundef %0, ptr noundef %1) #0 {
  %3 = alloca i32, align 4
  %4 = alloca ptr, align 8
  %5 = alloca ptr, align 8
  %6 = alloca ptr, align 8
  %7 = alloca i32, align 4
  %8 = alloca i32, align 4
  %9 = alloca ptr, align 8
  %10 = alloca i32, align 4
  %11 = alloca i32, align 4
  %12 = alloca %union.__CONST_SOCKADDR_ARG, align 8
  %13 = alloca [256 x i8], align 16
  store ptr %0, ptr %4, align 8, !tbaa !3
  store ptr %1, ptr %5, align 8, !tbaa !90
  call void @llvm.lifetime.start.p0(i64 8, ptr %6) #6
  call void @llvm.lifetime.start.p0(i64 4, ptr %7) #6
  call void @llvm.lifetime.start.p0(i64 4, ptr %8) #6
  call void @llvm.lifetime.start.p0(i64 8, ptr %9) #6
  %14 = load ptr, ptr %4, align 8, !tbaa !3
  %15 = getelementptr inbounds nuw %struct.Curl_easy, ptr %14, i32 0, i32 3
  %16 = load ptr, ptr %15, align 8, !tbaa !92
  store ptr %16, ptr %9, align 8, !tbaa !8
  store i32 512, ptr %7, align 4, !tbaa !95
  %17 = load ptr, ptr @Curl_ccalloc, align 8, !tbaa !102
  %18 = call ptr %17(i64 noundef 1, i64 noundef 344)
  %19 = load ptr, ptr %9, align 8, !tbaa !8
  %20 = getelementptr inbounds nuw %struct.connectdata, ptr %19, i32 0, i32 43
  store ptr %18, ptr %20, align 8, !tbaa !89
  store ptr %18, ptr %6, align 8, !tbaa !96
  %21 = load ptr, ptr %6, align 8, !tbaa !96
  %22 = icmp ne ptr %21, null
  br i1 %22, label %24, label %23

23:                                               ; preds = %2
  store i32 27, ptr %3, align 4
  store i32 1, ptr %10, align 4
  br label %159

24:                                               ; preds = %2
  %25 = load ptr, ptr %4, align 8, !tbaa !3
  %26 = getelementptr inbounds nuw %struct.Curl_easy, ptr %25, i32 0, i32 16
  %27 = getelementptr inbounds nuw %struct.UserDefined, ptr %26, i32 0, i32 37
  %28 = load i64, ptr %27, align 8, !tbaa !103
  %29 = icmp ne i64 %28, 0
  br i1 %29, label %30, label %36

30:                                               ; preds = %24
  %31 = load ptr, ptr %4, align 8, !tbaa !3
  %32 = getelementptr inbounds nuw %struct.Curl_easy, ptr %31, i32 0, i32 16
  %33 = getelementptr inbounds nuw %struct.UserDefined, ptr %32, i32 0, i32 37
  %34 = load i64, ptr %33, align 8, !tbaa !103
  %35 = trunc i64 %34 to i32
  store i32 %35, ptr %7, align 4, !tbaa !95
  br label %36

36:                                               ; preds = %30, %24
  %37 = load i32, ptr %7, align 4, !tbaa !95
  store i32 %37, ptr %8, align 4, !tbaa !95
  %38 = load i32, ptr %8, align 4, !tbaa !95
  %39 = icmp slt i32 %38, 512
  br i1 %39, label %40, label %41

40:                                               ; preds = %36
  store i32 512, ptr %8, align 4, !tbaa !95
  br label %41

41:                                               ; preds = %40, %36
  %42 = load ptr, ptr %6, align 8, !tbaa !96
  %43 = getelementptr inbounds nuw %struct.tftp_state_data, ptr %42, i32 0, i32 18
  %44 = getelementptr inbounds nuw %struct.tftp_packet, ptr %43, i32 0, i32 0
  %45 = load ptr, ptr %44, align 8, !tbaa !104
  %46 = icmp ne ptr %45, null
  br i1 %46, label %64, label %47

47:                                               ; preds = %41
  %48 = load ptr, ptr @Curl_ccalloc, align 8, !tbaa !102
  %49 = load i32, ptr %8, align 4, !tbaa !95
  %50 = add nsw i32 %49, 2
  %51 = add nsw i32 %50, 2
  %52 = sext i32 %51 to i64
  %53 = call ptr %48(i64 noundef 1, i64 noundef %52)
  %54 = load ptr, ptr %6, align 8, !tbaa !96
  %55 = getelementptr inbounds nuw %struct.tftp_state_data, ptr %54, i32 0, i32 18
  %56 = getelementptr inbounds nuw %struct.tftp_packet, ptr %55, i32 0, i32 0
  store ptr %53, ptr %56, align 8, !tbaa !104
  %57 = load ptr, ptr %6, align 8, !tbaa !96
  %58 = getelementptr inbounds nuw %struct.tftp_state_data, ptr %57, i32 0, i32 18
  %59 = getelementptr inbounds nuw %struct.tftp_packet, ptr %58, i32 0, i32 0
  %60 = load ptr, ptr %59, align 8, !tbaa !104
  %61 = icmp ne ptr %60, null
  br i1 %61, label %63, label %62

62:                                               ; preds = %47
  store i32 27, ptr %3, align 4
  store i32 1, ptr %10, align 4
  br label %159

63:                                               ; preds = %47
  br label %64

64:                                               ; preds = %63, %41
  %65 = load ptr, ptr %6, align 8, !tbaa !96
  %66 = getelementptr inbounds nuw %struct.tftp_state_data, ptr %65, i32 0, i32 19
  %67 = getelementptr inbounds nuw %struct.tftp_packet, ptr %66, i32 0, i32 0
  %68 = load ptr, ptr %67, align 8, !tbaa !105
  %69 = icmp ne ptr %68, null
  br i1 %69, label %87, label %70

70:                                               ; preds = %64
  %71 = load ptr, ptr @Curl_ccalloc, align 8, !tbaa !102
  %72 = load i32, ptr %8, align 4, !tbaa !95
  %73 = add nsw i32 %72, 2
  %74 = add nsw i32 %73, 2
  %75 = sext i32 %74 to i64
  %76 = call ptr %71(i64 noundef 1, i64 noundef %75)
  %77 = load ptr, ptr %6, align 8, !tbaa !96
  %78 = getelementptr inbounds nuw %struct.tftp_state_data, ptr %77, i32 0, i32 19
  %79 = getelementptr inbounds nuw %struct.tftp_packet, ptr %78, i32 0, i32 0
  store ptr %76, ptr %79, align 8, !tbaa !105
  %80 = load ptr, ptr %6, align 8, !tbaa !96
  %81 = getelementptr inbounds nuw %struct.tftp_state_data, ptr %80, i32 0, i32 19
  %82 = getelementptr inbounds nuw %struct.tftp_packet, ptr %81, i32 0, i32 0
  %83 = load ptr, ptr %82, align 8, !tbaa !105
  %84 = icmp ne ptr %83, null
  br i1 %84, label %86, label %85

85:                                               ; preds = %70
  store i32 27, ptr %3, align 4
  store i32 1, ptr %10, align 4
  br label %159

86:                                               ; preds = %70
  br label %87

87:                                               ; preds = %86, %64
  %88 = load ptr, ptr %9, align 8, !tbaa !8
  call void @Curl_conncontrol(ptr noundef %88, i32 noundef 1)
  %89 = load ptr, ptr %4, align 8, !tbaa !3
  %90 = load ptr, ptr %6, align 8, !tbaa !96
  %91 = getelementptr inbounds nuw %struct.tftp_state_data, ptr %90, i32 0, i32 4
  store ptr %89, ptr %91, align 8, !tbaa !106
  %92 = load ptr, ptr %9, align 8, !tbaa !8
  %93 = getelementptr inbounds nuw %struct.connectdata, ptr %92, i32 0, i32 24
  %94 = getelementptr inbounds [2 x i32], ptr %93, i64 0, i64 0
  %95 = load i32, ptr %94, align 8, !tbaa !95
  %96 = load ptr, ptr %6, align 8, !tbaa !96
  %97 = getelementptr inbounds nuw %struct.tftp_state_data, ptr %96, i32 0, i32 5
  store i32 %95, ptr %97, align 8, !tbaa !107
  %98 = load ptr, ptr %6, align 8, !tbaa !96
  %99 = getelementptr inbounds nuw %struct.tftp_state_data, ptr %98, i32 0, i32 0
  store i32 0, ptr %99, align 8, !tbaa !108
  %100 = load ptr, ptr %6, align 8, !tbaa !96
  %101 = getelementptr inbounds nuw %struct.tftp_state_data, ptr %100, i32 0, i32 2
  store i32 -100, ptr %101, align 8, !tbaa !98
  %102 = load ptr, ptr %6, align 8, !tbaa !96
  %103 = getelementptr inbounds nuw %struct.tftp_state_data, ptr %102, i32 0, i32 15
  store i32 512, ptr %103, align 4, !tbaa !109
  %104 = load i32, ptr %7, align 4, !tbaa !95
  %105 = load ptr, ptr %6, align 8, !tbaa !96
  %106 = getelementptr inbounds nuw %struct.tftp_state_data, ptr %105, i32 0, i32 16
  store i32 %104, ptr %106, align 8, !tbaa !110
  %107 = load ptr, ptr %9, align 8, !tbaa !8
  %108 = getelementptr inbounds nuw %struct.connectdata, ptr %107, i32 0, i32 7
  %109 = load ptr, ptr %108, align 8, !tbaa !111
  %110 = getelementptr inbounds nuw %struct.Curl_sockaddr_ex, ptr %109, i32 0, i32 0
  %111 = load i32, ptr %110, align 8, !tbaa !112
  %112 = trunc i32 %111 to i16
  %113 = load ptr, ptr %6, align 8, !tbaa !96
  %114 = getelementptr inbounds nuw %struct.tftp_state_data, ptr %113, i32 0, i32 10
  %115 = getelementptr inbounds nuw %struct.sockaddr, ptr %114, i32 0, i32 0
  store i16 %112, ptr %115, align 8, !tbaa !114
  %116 = load ptr, ptr %6, align 8, !tbaa !96
  %117 = call i32 @tftp_set_timeouts(ptr noundef %116)
  %118 = load ptr, ptr %9, align 8, !tbaa !8
  %119 = getelementptr inbounds nuw %struct.connectdata, ptr %118, i32 0, i32 32
  %120 = load i64, ptr %119, align 8
  %121 = lshr i64 %120, 20
  %122 = and i64 %121, 1
  %123 = trunc i64 %122 to i32
  %124 = icmp ne i32 %123, 0
  br i1 %124, label %156, label %125

125:                                              ; preds = %87
  call void @llvm.lifetime.start.p0(i64 4, ptr %11) #6
  %126 = load ptr, ptr %6, align 8, !tbaa !96
  %127 = getelementptr inbounds nuw %struct.tftp_state_data, ptr %126, i32 0, i32 5
  %128 = load i32, ptr %127, align 8, !tbaa !107
  %129 = load ptr, ptr %6, align 8, !tbaa !96
  %130 = getelementptr inbounds nuw %struct.tftp_state_data, ptr %129, i32 0, i32 10
  store ptr %130, ptr %12, align 8, !tbaa !89
  %131 = load ptr, ptr %9, align 8, !tbaa !8
  %132 = getelementptr inbounds nuw %struct.connectdata, ptr %131, i32 0, i32 7
  %133 = load ptr, ptr %132, align 8, !tbaa !111
  %134 = getelementptr inbounds nuw %struct.Curl_sockaddr_ex, ptr %133, i32 0, i32 3
  %135 = load i32, ptr %134, align 4, !tbaa !116
  %136 = getelementptr inbounds nuw %union.__CONST_SOCKADDR_ARG, ptr %12, i32 0, i32 0
  %137 = load ptr, ptr %136, align 8
  %138 = call i32 @bind(i32 noundef %128, ptr %137, i32 noundef %135) #6
  store i32 %138, ptr %11, align 4, !tbaa !95
  %139 = load i32, ptr %11, align 4, !tbaa !95
  %140 = icmp ne i32 %139, 0
  br i1 %140, label %141, label %147

141:                                              ; preds = %125
  call void @llvm.lifetime.start.p0(i64 256, ptr %13) #6
  %142 = load ptr, ptr %4, align 8, !tbaa !3
  %143 = call ptr @__errno_location() #8
  %144 = load i32, ptr %143, align 4, !tbaa !95
  %145 = getelementptr inbounds [256 x i8], ptr %13, i64 0, i64 0
  %146 = call ptr @Curl_strerror(i32 noundef %144, ptr noundef %145, i64 noundef 256)
  call void (ptr, ptr, ...) @Curl_failf(ptr noundef %142, ptr noundef @.str.1, ptr noundef %146)
  store i32 7, ptr %3, align 4
  store i32 1, ptr %10, align 4
  call void @llvm.lifetime.end.p0(i64 256, ptr %13) #6
  br label %153

147:                                              ; preds = %125
  %148 = load ptr, ptr %9, align 8, !tbaa !8
  %149 = getelementptr inbounds nuw %struct.connectdata, ptr %148, i32 0, i32 32
  %150 = load i64, ptr %149, align 8
  %151 = and i64 %150, -1048577
  %152 = or i64 %151, 1048576
  store i64 %152, ptr %149, align 8
  store i32 0, ptr %10, align 4
  br label %153

153:                                              ; preds = %147, %141
  call void @llvm.lifetime.end.p0(i64 4, ptr %11) #6
  %154 = load i32, ptr %10, align 4
  switch i32 %154, label %159 [
    i32 0, label %155
  ]

155:                                              ; preds = %153
  br label %156

156:                                              ; preds = %155, %87
  %157 = load ptr, ptr %4, align 8, !tbaa !3
  call void @Curl_pgrsStartNow(ptr noundef %157)
  %158 = load ptr, ptr %5, align 8, !tbaa !90
  store i8 1, ptr %158, align 1, !tbaa !93
  store i32 0, ptr %3, align 4
  store i32 1, ptr %10, align 4
  br label %159

159:                                              ; preds = %156, %153, %85, %62, %23
  call void @llvm.lifetime.end.p0(i64 8, ptr %9) #6
  call void @llvm.lifetime.end.p0(i64 4, ptr %8) #6
  call void @llvm.lifetime.end.p0(i64 4, ptr %7) #6
  call void @llvm.lifetime.end.p0(i64 8, ptr %6) #6
  %160 = load i32, ptr %3, align 4
  ret i32 %160
}