; Function Attrs: nounwind uwtable
define internal range(i32 0, 28) i32 @tftp_connect(ptr noundef %0, ptr noundef writeonly captures(none) %1) #0 {
  %3 = alloca [256 x i8], align 16
  %4 = getelementptr inbounds nuw i8, ptr %0, i64 24
  %5 = load ptr, ptr %4, align 8, !tbaa !86
  %6 = load ptr, ptr @Curl_ccalloc, align 8, !tbaa !95
  %7 = tail call ptr %6(i64 noundef 1, i64 noundef 344) #13
  %8 = getelementptr inbounds nuw i8, ptr %5, i64 1088
  store ptr %7, ptr %8, align 8, !tbaa !85
  %.not = icmp eq ptr %7, null
  br i1 %.not, label %58, label %9

9:                                                ; preds = %2
  %10 = getelementptr inbounds nuw i8, ptr %0, i64 760
  %11 = load i64, ptr %10, align 8, !tbaa !96
  %.not42 = icmp eq i64 %11, 0
  %12 = trunc i64 %11 to i32
  %spec.select = select i1 %.not42, i32 512, i32 %12
  %spec.store.select = tail call i32 @llvm.smax.i32(i32 %spec.select, i32 512)
  %13 = getelementptr inbounds nuw i8, ptr %7, i64 328
  %14 = load ptr, ptr %13, align 8, !tbaa !97
  %.not43 = icmp eq ptr %14, null
  br i1 %.not43, label %15, label %20

15:                                               ; preds = %9
  %16 = load ptr, ptr @Curl_ccalloc, align 8, !tbaa !95
  %17 = add nuw nsw i32 %spec.store.select, 4
  %18 = zext nneg i32 %17 to i64
  %19 = tail call ptr %16(i64 noundef 1, i64 noundef %18) #13
  store ptr %19, ptr %13, align 8, !tbaa !97
  %.not44 = icmp eq ptr %19, null
  br i1 %.not44, label %58, label %20

20:                                               ; preds = %15, %9
  %21 = getelementptr inbounds nuw i8, ptr %7, i64 336
  %22 = load ptr, ptr %21, align 8, !tbaa !98
  %.not45 = icmp eq ptr %22, null
  br i1 %.not45, label %23, label %28

23:                                               ; preds = %20
  %24 = load ptr, ptr @Curl_ccalloc, align 8, !tbaa !95
  %25 = add nuw nsw i32 %spec.store.select, 4
  %26 = zext nneg i32 %25 to i64
  %27 = tail call ptr %24(i64 noundef 1, i64 noundef %26) #13
  store ptr %27, ptr %21, align 8, !tbaa !98
  %.not46 = icmp eq ptr %27, null
  br i1 %.not46, label %58, label %28

28:                                               ; preds = %23, %20
  tail call void @Curl_conncontrol(ptr noundef nonnull %5, i32 noundef 1) #13
  %29 = getelementptr inbounds nuw i8, ptr %7, i64 16
  store ptr %0, ptr %29, align 8, !tbaa !99
  %30 = getelementptr inbounds nuw i8, ptr %5, i64 568
  %31 = load i32, ptr %30, align 8, !tbaa !100
  %32 = getelementptr inbounds nuw i8, ptr %7, i64 24
  store i32 %31, ptr %32, align 8, !tbaa !101
  store i32 0, ptr %7, align 8, !tbaa !89
  %33 = getelementptr inbounds nuw i8, ptr %7, i64 8
  store i32 -100, ptr %33, align 8, !tbaa !94
  %34 = getelementptr inbounds nuw i8, ptr %7, i64 316
  store i32 512, ptr %34, align 4, !tbaa !102
  %35 = getelementptr inbounds nuw i8, ptr %7, i64 320
  store i32 %spec.select, ptr %35, align 8, !tbaa !103
  %36 = getelementptr inbounds nuw i8, ptr %5, i64 80
  %37 = load ptr, ptr %36, align 8, !tbaa !104
  %38 = load i32, ptr %37, align 8, !tbaa !105
  %39 = trunc i32 %38 to i16
  %40 = getelementptr inbounds nuw i8, ptr %7, i64 48
  store i16 %39, ptr %40, align 8, !tbaa !107
  %41 = tail call fastcc i32 @tftp_set_timeouts(ptr noundef nonnull %7)
  %42 = getelementptr inbounds nuw i8, ptr %5, i64 952
  %43 = load i64, ptr %42, align 8
  %44 = and i64 %43, 1048576
  %.not47 = icmp eq i64 %44, 0
  br i1 %.not47, label %45, label %57

45:                                               ; preds = %28
  %46 = load i32, ptr %32, align 8, !tbaa !101
  %47 = load ptr, ptr %36, align 8, !tbaa !104
  %48 = getelementptr inbounds nuw i8, ptr %47, i64 12
  %49 = load i32, ptr %48, align 4, !tbaa !109
  %50 = tail call i32 @bind(i32 noundef %46, ptr nonnull %40, i32 noundef %49) #13
  %.not48 = icmp eq i32 %50, 0
  br i1 %.not48, label %.thread, label %53

.thread:                                          ; preds = %45
  %51 = load i64, ptr %42, align 8
  %52 = or i64 %51, 1048576
  store i64 %52, ptr %42, align 8
  br label %57

53:                                               ; preds = %45
  call void @llvm.lifetime.start.p0(i64 256, ptr nonnull %3) #13
  %54 = tail call ptr @__errno_location() #14
  %55 = load i32, ptr %54, align 4, !tbaa !100
  %56 = call ptr @Curl_strerror(i32 noundef %55, ptr noundef nonnull %3, i64 noundef 256) #13
  call void (ptr, ptr, ...) @Curl_failf(ptr noundef nonnull %0, ptr noundef nonnull @.str.1, ptr noundef %56) #13
  call void @llvm.lifetime.end.p0(i64 256, ptr nonnull %3) #13
  br label %58

57:                                               ; preds = %.thread, %28
  tail call void @Curl_pgrsStartNow(ptr noundef nonnull %0) #13
  store i8 1, ptr %1, align 1, !tbaa !87
  br label %58

58:                                               ; preds = %53, %23, %15, %2, %57
  %.0 = phi i32 [ 0, %57 ], [ 7, %53 ], [ 27, %2 ], [ 27, %15 ], [ 27, %23 ]
  ret i32 %.0
}